target datalayout = "e-m:e-p270:32:32-p271:32:32-p272:64:64-i64:64-i128:128-f80:128-n8:16:32:64-S128"
target triple = "x86_64-pc-linux-gnu"

; Function Attrs: inlinehint nounwind sspstrong uwtable
define internal i64 @murmur_step(i64 noundef %0, i64 noundef %1) #3 {
  %3 = alloca i64, align 8
  %4 = alloca i64, align 8
  store i64 %0, ptr %3, align 8, !tbaa !14
  store i64 %1, ptr %4, align 8, !tbaa !14
  %5 = load i64, ptr %4, align 8, !tbaa !14
  %6 = mul i64 %5, -8663945395140668459
  store i64 %6, ptr %4, align 8, !tbaa !14
  %7 = load i64, ptr %4, align 8, !tbaa !14
  %8 = shl i64 %7, 33
  %9 = load i64, ptr %4, align 8, !tbaa !14
  %10 = lshr i64 %9, 31
  %11 = or i64 %8, %10
  %12 = load i64, ptr %3, align 8, !tbaa !14
  %13 = xor i64 %12, %11
  store i64 %13, ptr %3, align 8, !tbaa !14
  %14 = load i64, ptr %3, align 8, !tbaa !14
  %15 = mul i64 %14, 5545529020109919103
  store i64 %15, ptr %3, align 8, !tbaa !14
  %16 = load i64, ptr %3, align 8, !tbaa !14
  %17 = shl i64 %16, 24
  %18 = load i64, ptr %3, align 8, !tbaa !14
  %19 = lshr i64 %18, 40
  %20 = or i64 %17, %19
  store i64 %20, ptr %3, align 8, !tbaa !14
  %21 = load i64, ptr %3, align 8, !tbaa !14
  ret i64 %21
}

; Function Attrs: nounwind sspstrong willreturn memory(none) uwtable
define dso_local i64 @rb_st_hash_uint(i64 noundef %0, i64 noundef %1) #10 {
  %3 = alloca i64, align 8
  %4 = alloca i64, align 8
  store i64 %0, ptr %3, align 8, !tbaa !14
  store i64 %1, ptr %4, align 8, !tbaa !14
  %5 = load i64, ptr %3, align 8, !tbaa !14
  %6 = load i64, ptr %4, align 8, !tbaa !14
  %7 = add i64 %6, %5
  store i64 %7, ptr %4, align 8, !tbaa !14
  %8 = load i64, ptr %3, align 8, !tbaa !14
  %9 = load i64, ptr %4, align 8, !tbaa !14
  %10 = call i64 @murmur_step(i64 noundef %8, i64 noundef %9)
  store i64 %10, ptr %3, align 8, !tbaa !14
  %11 = load i64, ptr %3, align 8, !tbaa !14
  ret i64 %11
}